; Function Attrs: mustprogress uwtable
define hidden noundef float @_ZN5zxing6qrcode19FinderPatternFinder8distanceENS_3RefINS_11ResultPointEEES4_(ptr nocapture noundef nonnull readnone align 8 dereferenceable(88) %0, ptr nocapture noundef readonly %1, ptr nocapture noundef readonly %2) local_unnamed_addr #0 align 2 {
  %4 = load ptr, ptr %1, align 8
  %5 = load ptr, ptr %4, align 8
  %6 = getelementptr inbounds i8, ptr %5, i64 16
  %7 = load ptr, ptr %6, align 8
  %8 = tail call noundef float %7(ptr noundef nonnull align 8 dereferenceable(20) %4)
  %9 = load ptr, ptr %2, align 8
  %10 = load ptr, ptr %9, align 8
  %11 = getelementptr inbounds i8, ptr %10, i64 16
  %12 = load ptr, ptr %11, align 8
  %13 = tail call noundef float %12(ptr noundef nonnull align 8 dereferenceable(20) %9)
  %14 = fsub float %8, %13
  %15 = load ptr, ptr %1, align 8
  %16 = load ptr, ptr %15, align 8
  %17 = getelementptr inbounds i8, ptr %16, i64 24
  %18 = load ptr, ptr %17, align 8
  %19 = tail call noundef float %18(ptr noundef nonnull align 8 dereferenceable(20) %15)
  %20 = load ptr, ptr %2, align 8
  %21 = load ptr, ptr %20, align 8
  %22 = getelementptr inbounds i8, ptr %21, i64 24
  %23 = load ptr, ptr %22, align 8
  %24 = tail call noundef float %23(ptr noundef nonnull align 8 dereferenceable(20) %20)
  %25 = fsub float %19, %24
  %26 = fmul float %25, %25
  %27 = tail call float @llvm.fmuladd.f32(float %14, float %14, float %26)
  %sqrt = tail call float @llvm.sqrt.f32(float %27)
  ret float %sqrt
}